target datalayout = "e-m:e-p270:32:32-p271:32:32-p272:64:64-i64:64-i128:128-f80:128-n8:16:32:64-S128"
target triple = "x86_64-pc-linux-gnu"

%"class.(anonymous namespace)::ParseTest" = type { %"class.testing::Test", %"class.absl::FlagSaver" }
%"class.testing::Test" = type { ptr, %"class.std::unique_ptr" }
%"class.std::unique_ptr" = type { %"struct.std::__uniq_ptr_data" }
%"struct.std::__uniq_ptr_data" = type { %"class.std::__uniq_ptr_impl" }
%"class.std::__uniq_ptr_impl" = type { %"class.std::tuple" }
%"class.std::tuple" = type { %"struct.std::_Tuple_impl" }
%"struct.std::_Tuple_impl" = type { %"struct.std::_Head_base.55" }
%"struct.std::_Head_base.55" = type { ptr }
%"class.absl::FlagSaver" = type { ptr }

; Function Attrs: mustprogress nounwind uwtable
define internal void @_ZN12_GLOBAL__N_19ParseTestD2Ev(ptr noundef nonnull align 8 dereferenceable(24) %0) unnamed_addr #6 align 2 personality ptr @__gxx_personality_v0 {
  %2 = alloca ptr, align 8
  store ptr %0, ptr %2, align 8, !tbaa !183
  %3 = load ptr, ptr %2, align 8
  store ptr getelementptr inbounds inrange(-16, 48) ({ [8 x ptr] }, ptr @_ZTVN12_GLOBAL__N_19ParseTestE, i32 0, i32 0, i32 2), ptr %3, align 8, !tbaa !81
  invoke void @_ZN4absl14flags_internal16SetFlagsHelpModeENS0_8HelpModeE(i32 noundef 0)
          to label %4 unwind label %6

4:                                                ; preds = %1
  %5 = getelementptr inbounds nuw %"class.(anonymous namespace)::ParseTest", ptr %3, i32 0, i32 1
  call void @_ZN4absl9FlagSaverD1Ev(ptr noundef nonnull align 8 dereferenceable(8) %5) #3
  call void @_ZN7testing4TestD2Ev(ptr noundef nonnull align 8 dereferenceable(16) %3) #3
  ret void

6:                                                ; preds = %1
  %7 = landingpad { ptr, i32 }
          catch ptr null
  %8 = extractvalue { ptr, i32 } %7, 0
  call void @__clang_call_terminate(ptr %8) #26
  unreachable
}

; Function Attrs: mustprogress nounwind uwtable
define internal void @_ZN12_GLOBAL__N_147ParseDeathTest_ParseAbseilFlagsOnlyFailure_TestD0Ev(ptr noundef nonnull align 8 dereferenceable(24) %0) unnamed_addr #6 align 2 {
  %2 = alloca ptr, align 8
  store ptr %0, ptr %2, align 8, !tbaa !1093
  %3 = load ptr, ptr %2, align 8
  call void @_ZN12_GLOBAL__N_19ParseTestD2Ev(ptr noundef nonnull align 8 dereferenceable(24) %3) #3
  call void @_ZdlPvm(ptr noundef %3, i64 noundef 24) #24
  ret void
}